target datalayout = "e-m:e-p270:32:32-p271:32:32-p272:64:64-i64:64-i128:128-f80:128-n8:16:32:64-S128"
target triple = "x86_64-pc-linux-gnu"

%struct.JSValue = type { %union.JSValueUnion, i64 }
%union.JSValueUnion = type { double }
%struct.JSRefCountHeader = type { i32 }

@stderr = external global ptr, align 8
@.str.209 = private unnamed_addr constant [6 x i8] c"stack\00", align 1
@.str.210 = private unnamed_addr constant [4 x i8] c"%s\0A\00", align 1
@.str.211 = private unnamed_addr constant [13 x i8] c"[exception]\0A\00", align 1

; Function Attrs: nounwind uwtable
define internal ptr @JS_ToCString(ptr noundef %0, i64 %1, i64 %2) #0 {
  %4 = alloca %struct.JSValue, align 8
  %5 = alloca ptr, align 8
  %6 = getelementptr inbounds { i64, i64 }, ptr %4, i32 0, i32 0
  store i64 %1, ptr %6, align 8
  %7 = getelementptr inbounds { i64, i64 }, ptr %4, i32 0, i32 1
  store i64 %2, ptr %7, align 8
  store ptr %0, ptr %5, align 8
  %8 = load ptr, ptr %5, align 8
  %9 = getelementptr inbounds { i64, i64 }, ptr %4, i32 0, i32 0
  %10 = load i64, ptr %9, align 8
  %11 = getelementptr inbounds { i64, i64 }, ptr %4, i32 0, i32 1
  %12 = load i64, ptr %11, align 8
  %13 = call ptr @JS_ToCStringLen2(ptr noundef %8, ptr noundef null, i64 %10, i64 %12, i32 noundef 0)
  ret ptr %13
}

; Function Attrs: nounwind uwtable
define internal void @JS_FreeValue(ptr noundef %0, i64 %1, i64 %2) #0 {
  %4 = alloca %struct.JSValue, align 8
  %5 = alloca ptr, align 8
  %6 = alloca ptr, align 8
  %7 = getelementptr inbounds { i64, i64 }, ptr %4, i32 0, i32 0
  store i64 %1, ptr %7, align 8
  %8 = getelementptr inbounds { i64, i64 }, ptr %4, i32 0, i32 1
  store i64 %2, ptr %8, align 8
  store ptr %0, ptr %5, align 8
  %9 = getelementptr inbounds %struct.JSValue, ptr %4, i32 0, i32 1
  %10 = load i64, ptr %9, align 8
  %11 = trunc i64 %10 to i32
  %12 = icmp uge i32 %11, -11
  br i1 %12, label %13, label %28

13:                                               ; preds = %3
  %14 = getelementptr inbounds %struct.JSValue, ptr %4, i32 0, i32 0
  %15 = load ptr, ptr %14, align 8
  store ptr %15, ptr %6, align 8
  %16 = load ptr, ptr %6, align 8
  %17 = getelementptr inbounds %struct.JSRefCountHeader, ptr %16, i32 0, i32 0
  %18 = load i32, ptr %17, align 4
  %19 = add i32 %18, -1
  store i32 %19, ptr %17, align 4
  %20 = icmp sle i32 %19, 0
  br i1 %20, label %21, label %27

21:                                               ; preds = %13
  %22 = load ptr, ptr %5, align 8
  %23 = getelementptr inbounds { i64, i64 }, ptr %4, i32 0, i32 0
  %24 = load i64, ptr %23, align 8
  %25 = getelementptr inbounds { i64, i64 }, ptr %4, i32 0, i32 1
  %26 = load i64, ptr %25, align 8
  call void @__JS_FreeValue(ptr noundef %22, i64 %24, i64 %26)
  br label %27

27:                                               ; preds = %21, %13
  br label %28

28:                                               ; preds = %27, %3
  ret void
}

; Function Attrs: nounwind uwtable
define internal i32 @JS_IsUndefined(i64 %0, i64 %1) #0 {
  %3 = alloca %struct.JSValue, align 8
  %4 = getelementptr inbounds { i64, i64 }, ptr %3, i32 0, i32 0
  store i64 %0, ptr %4, align 8
  %5 = getelementptr inbounds { i64, i64 }, ptr %3, i32 0, i32 1
  store i64 %1, ptr %5, align 8
  %6 = getelementptr inbounds %struct.JSValue, ptr %3, i32 0, i32 1
  %7 = load i64, ptr %6, align 8
  %8 = trunc i64 %7 to i32
  %9 = icmp eq i32 %8, 3
  %10 = zext i1 %9 to i32
  ret i32 %10
}

; Function Attrs: nounwind uwtable
define internal void @js_dump_obj(ptr noundef %0, ptr noundef %1, i64 %2, i64 %3) #0 {
  %5 = alloca %struct.JSValue, align 8
  %6 = alloca ptr, align 8
  %7 = alloca ptr, align 8
  %8 = alloca ptr, align 8
  %9 = getelementptr inbounds { i64, i64 }, ptr %5, i32 0, i32 0
  store i64 %2, ptr %9, align 8
  %10 = getelementptr inbounds { i64, i64 }, ptr %5, i32 0, i32 1
  store i64 %3, ptr %10, align 8
  store ptr %0, ptr %6, align 8
  store ptr %1, ptr %7, align 8
  %11 = load ptr, ptr %6, align 8
  %12 = getelementptr inbounds { i64, i64 }, ptr %5, i32 0, i32 0
  %13 = load i64, ptr %12, align 8
  %14 = getelementptr inbounds { i64, i64 }, ptr %5, i32 0, i32 1
  %15 = load i64, ptr %14, align 8
  %16 = call ptr @JS_ToCString(ptr noundef %11, i64 %13, i64 %15)
  store ptr %16, ptr %8, align 8
  %17 = load ptr, ptr %8, align 8
  %18 = icmp ne ptr %17, null
  br i1 %18, label %19, label %25

19:                                               ; preds = %4
  %20 = load ptr, ptr %7, align 8
  %21 = load ptr, ptr %8, align 8
  %22 = call i32 (ptr, ptr, ...) @fprintf(ptr noundef %20, ptr noundef @.str.210, ptr noundef %21) #12
  %23 = load ptr, ptr %6, align 8
  %24 = load ptr, ptr %8, align 8
  call void @JS_FreeCString(ptr noundef %23, ptr noundef %24)
  br label %28

25:                                               ; preds = %4
  %26 = load ptr, ptr %7, align 8
  %27 = call i32 (ptr, ptr, ...) @fprintf(ptr noundef %26, ptr noundef @.str.211) #12
  br label %28

28:                                               ; preds = %25, %19
  ret void
}

; Function Attrs: nounwind uwtable
define internal void @js_std_dump_error1(ptr noundef %0, i64 %1, i64 %2) #0 {
  %4 = alloca %struct.JSValue, align 8
  %5 = alloca ptr, align 8
  %6 = alloca %struct.JSValue, align 8
  %7 = alloca i32, align 4
  %8 = alloca %struct.JSValue, align 8
  %9 = getelementptr inbounds { i64, i64 }, ptr %4, i32 0, i32 0
  store i64 %1, ptr %9, align 8
  %10 = getelementptr inbounds { i64, i64 }, ptr %4, i32 0, i32 1
  store i64 %2, ptr %10, align 8
  store ptr %0, ptr %5, align 8
  %11 = load ptr, ptr %5, align 8
  %12 = getelementptr inbounds { i64, i64 }, ptr %4, i32 0, i32 0
  %13 = load i64, ptr %12, align 8
  %14 = getelementptr inbounds { i64, i64 }, ptr %4, i32 0, i32 1
  %15 = load i64, ptr %14, align 8
  %16 = call i32 @JS_IsError(ptr noundef %11, i64 %13, i64 %15)
  store i32 %16, ptr %7, align 4
  %17 = load ptr, ptr %5, align 8
  %18 = load ptr, ptr @stderr, align 8
  %19 = getelementptr inbounds { i64, i64 }, ptr %4, i32 0, i32 0
  %20 = load i64, ptr %19, align 8
  %21 = getelementptr inbounds { i64, i64 }, ptr %4, i32 0, i32 1
  %22 = load i64, ptr %21, align 8
  call void @js_dump_obj(ptr noundef %17, ptr noundef %18, i64 %20, i64 %22)
  %23 = load i32, ptr %7, align 4
  %24 = icmp ne i32 %23, 0
  br i1 %24, label %25, label %55

25:                                               ; preds = %3
  %26 = load ptr, ptr %5, align 8
  %27 = getelementptr inbounds { i64, i64 }, ptr %4, i32 0, i32 0
  %28 = load i64, ptr %27, align 8
  %29 = getelementptr inbounds { i64, i64 }, ptr %4, i32 0, i32 1
  %30 = load i64, ptr %29, align 8
  %31 = call { i64, i64 } @JS_GetPropertyStr(ptr noundef %26, i64 %28, i64 %30, ptr noundef @.str.209)
  %32 = getelementptr inbounds { i64, i64 }, ptr %8, i32 0, i32 0
  %33 = extractvalue { i64, i64 } %31, 0
  store i64 %33, ptr %32, align 8
  %34 = getelementptr inbounds { i64, i64 }, ptr %8, i32 0, i32 1
  %35 = extractvalue { i64, i64 } %31, 1
  store i64 %35, ptr %34, align 8
  call void @llvm.memcpy.p0.p0.i64(ptr align 8 %6, ptr align 8 %8, i64 16, i1 false)
  %36 = getelementptr inbounds { i64, i64 }, ptr %6, i32 0, i32 0
  %37 = load i64, ptr %36, align 8
  %38 = getelementptr inbounds { i64, i64 }, ptr %6, i32 0, i32 1
  %39 = load i64, ptr %38, align 8
  %40 = call i32 @JS_IsUndefined(i64 %37, i64 %39)
  %41 = icmp ne i32 %40, 0
  br i1 %41, label %49, label %42

42:                                               ; preds = %25
  %43 = load ptr, ptr %5, align 8
  %44 = load ptr, ptr @stderr, align 8
  %45 = getelementptr inbounds { i64, i64 }, ptr %6, i32 0, i32 0
  %46 = load i64, ptr %45, align 8
  %47 = getelementptr inbounds { i64, i64 }, ptr %6, i32 0, i32 1
  %48 = load i64, ptr %47, align 8
  call void @js_dump_obj(ptr noundef %43, ptr noundef %44, i64 %46, i64 %48)
  br label %49

49:                                               ; preds = %42, %25
  %50 = load ptr, ptr %5, align 8
  %51 = getelementptr inbounds { i64, i64 }, ptr %6, i32 0, i32 0
  %52 = load i64, ptr %51, align 8
  %53 = getelementptr inbounds { i64, i64 }, ptr %6, i32 0, i32 1
  %54 = load i64, ptr %53, align 8
  call void @JS_FreeValue(ptr noundef %50, i64 %52, i64 %54)
  br label %55

55:                                               ; preds = %49, %3
  ret void
}