; Function Attrs: nounwind uwtable
define internal fastcc void @js_std_dump_error1(ptr noundef %0, i64 %1, i64 %2) unnamed_addr #0 {
  %4 = tail call i32 @JS_IsError(ptr noundef %0, i64 %1, i64 %2) #29
  %5 = load ptr, ptr @stderr, align 8
  %6 = tail call ptr @JS_ToCStringLen2(ptr noundef %0, ptr noundef null, i64 %1, i64 %2, i32 noundef 0) #29
  %.not.i = icmp eq ptr %6, null
  br i1 %.not.i, label %9, label %7

7:                                                ; preds = %3
  %8 = tail call i32 (ptr, ptr, ...) @fprintf(ptr noundef %5, ptr noundef nonnull @.str.210, ptr noundef nonnull %6) #34
  tail call void @JS_FreeCString(ptr noundef %0, ptr noundef nonnull %6) #29
  br label %js_dump_obj.exit

9:                                                ; preds = %3
  %10 = tail call i64 @fwrite(ptr nonnull @.str.211, i64 12, i64 1, ptr %5) #32
  br label %js_dump_obj.exit

js_dump_obj.exit:                                 ; preds = %7, %9
  %.not = icmp eq i32 %4, 0
  br i1 %.not, label %JS_FreeValue.exit, label %11

11:                                               ; preds = %js_dump_obj.exit
  %12 = tail call { i64, i64 } @JS_GetPropertyStr(ptr noundef %0, i64 %1, i64 %2, ptr noundef nonnull @.str.209) #29
  %13 = extractvalue { i64, i64 } %12, 0
  %14 = extractvalue { i64, i64 } %12, 1
  %15 = and i64 %14, 4294967295
  %.not19 = icmp eq i64 %15, 3
  br i1 %.not19, label %js_dump_obj.exit18, label %16

16:                                               ; preds = %11
  %17 = load ptr, ptr @stderr, align 8
  %18 = tail call ptr @JS_ToCStringLen2(ptr noundef %0, ptr noundef null, i64 %13, i64 %14, i32 noundef 0) #29
  %.not.i17 = icmp eq ptr %18, null
  br i1 %.not.i17, label %21, label %19

19:                                               ; preds = %16
  %20 = tail call i32 (ptr, ptr, ...) @fprintf(ptr noundef %17, ptr noundef nonnull @.str.210, ptr noundef nonnull %18) #34
  tail call void @JS_FreeCString(ptr noundef %0, ptr noundef nonnull %18) #29
  br label %js_dump_obj.exit18

21:                                               ; preds = %16
  %22 = tail call i64 @fwrite(ptr nonnull @.str.211, i64 12, i64 1, ptr %17) #32
  br label %js_dump_obj.exit18

js_dump_obj.exit18:                               ; preds = %21, %19, %11
  %23 = trunc i64 %14 to i32
  %24 = icmp ugt i32 %23, -12
  br i1 %24, label %25, label %JS_FreeValue.exit

25:                                               ; preds = %js_dump_obj.exit18
  %26 = inttoptr i64 %13 to ptr
  %27 = load i32, ptr %26, align 4
  %28 = add i32 %27, -1
  store i32 %28, ptr %26, align 4
  %29 = icmp slt i32 %28, 1
  br i1 %29, label %30, label %JS_FreeValue.exit

30:                                               ; preds = %25
  tail call void @__JS_FreeValue(ptr noundef %0, i64 %13, i64 %14) #29
  br label %JS_FreeValue.exit

JS_FreeValue.exit:                                ; preds = %30, %25, %js_dump_obj.exit18, %js_dump_obj.exit
  ret void
}